ARM GAS  C:\Users\Patrick\AppData\Local\Temp\ccUxOHii.s 			page 1


   1              		.cpu cortex-m3
   2              		.eabi_attribute 20, 1
   3              		.eabi_attribute 21, 1
   4              		.eabi_attribute 23, 3
   5              		.eabi_attribute 24, 1
   6              		.eabi_attribute 25, 1
   7              		.eabi_attribute 26, 1
   8              		.eabi_attribute 30, 1
   9              		.eabi_attribute 34, 1
  10              		.eabi_attribute 18, 4
  11              		.file	"usb.c"
  12              		.text
  13              	.Ltext0:
  14              		.cfi_sections	.debug_frame
  15              		.section	.text.MX_USB_PCD_Init,"ax",%progbits
  16              		.align	1
  17              		.global	MX_USB_PCD_Init
  18              		.syntax unified
  19              		.thumb
  20              		.thumb_func
  21              		.fpu softvfp
  23              	MX_USB_PCD_Init:
  24              	.LFB66:
  25              		.file 1 "Src/usb.c"
   1:Src/usb.c     **** /**
   2:Src/usb.c     ****   ******************************************************************************
   3:Src/usb.c     ****   * File Name          : USB.c
   4:Src/usb.c     ****   * Description        : This file provides code for the configuration
   5:Src/usb.c     ****   *                      of the USB instances.
   6:Src/usb.c     ****   ******************************************************************************
   7:Src/usb.c     ****   * @attention
   8:Src/usb.c     ****   *
   9:Src/usb.c     ****   * <h2><center>&copy; Copyright (c) 2019 STMicroelectronics.
  10:Src/usb.c     ****   * All rights reserved.</center></h2>
  11:Src/usb.c     ****   *
  12:Src/usb.c     ****   * This software component is licensed by ST under BSD 3-Clause license,
  13:Src/usb.c     ****   * the "License"; You may not use this file except in compliance with the
  14:Src/usb.c     ****   * License. You may obtain a copy of the License at:
  15:Src/usb.c     ****   *                        opensource.org/licenses/BSD-3-Clause
  16:Src/usb.c     ****   *
  17:Src/usb.c     ****   ******************************************************************************
  18:Src/usb.c     ****   */
  19:Src/usb.c     **** 
  20:Src/usb.c     **** /* Includes ------------------------------------------------------------------*/
  21:Src/usb.c     **** #include "usb.h"
  22:Src/usb.c     **** 
  23:Src/usb.c     **** /* USER CODE BEGIN 0 */
  24:Src/usb.c     **** 
  25:Src/usb.c     **** /* USER CODE END 0 */
  26:Src/usb.c     **** 
  27:Src/usb.c     **** PCD_HandleTypeDef hpcd_USB_FS;
  28:Src/usb.c     **** 
  29:Src/usb.c     **** /* USB init function */
  30:Src/usb.c     **** 
  31:Src/usb.c     **** void MX_USB_PCD_Init(void)
  32:Src/usb.c     **** {
  26              		.loc 1 32 0
ARM GAS  C:\Users\Patrick\AppData\Local\Temp\ccUxOHii.s 			page 2


  27              		.cfi_startproc
  28              		@ args = 0, pretend = 0, frame = 0
  29              		@ frame_needed = 0, uses_anonymous_args = 0
  30 0000 08B5     		push	{r3, lr}
  31              	.LCFI0:
  32              		.cfi_def_cfa_offset 8
  33              		.cfi_offset 3, -8
  34              		.cfi_offset 14, -4
  33:Src/usb.c     **** 
  34:Src/usb.c     ****   hpcd_USB_FS.Instance = USB;
  35              		.loc 1 34 0
  36 0002 0948     		ldr	r0, .L5
  37 0004 094B     		ldr	r3, .L5+4
  38 0006 0360     		str	r3, [r0]
  35:Src/usb.c     ****   hpcd_USB_FS.Init.dev_endpoints = 8;
  39              		.loc 1 35 0
  40 0008 0823     		movs	r3, #8
  41 000a 4360     		str	r3, [r0, #4]
  36:Src/usb.c     ****   hpcd_USB_FS.Init.speed = PCD_SPEED_FULL;
  42              		.loc 1 36 0
  43 000c 0223     		movs	r3, #2
  44 000e 8360     		str	r3, [r0, #8]
  37:Src/usb.c     ****   hpcd_USB_FS.Init.low_power_enable = DISABLE;
  45              		.loc 1 37 0
  46 0010 0023     		movs	r3, #0
  47 0012 8361     		str	r3, [r0, #24]
  38:Src/usb.c     ****   hpcd_USB_FS.Init.lpm_enable = DISABLE;
  48              		.loc 1 38 0
  49 0014 C361     		str	r3, [r0, #28]
  39:Src/usb.c     ****   hpcd_USB_FS.Init.battery_charging_enable = DISABLE;
  50              		.loc 1 39 0
  51 0016 0362     		str	r3, [r0, #32]
  40:Src/usb.c     ****   if (HAL_PCD_Init(&hpcd_USB_FS) != HAL_OK)
  52              		.loc 1 40 0
  53 0018 FFF7FEFF 		bl	HAL_PCD_Init
  54              	.LVL0:
  55 001c 00B9     		cbnz	r0, .L4
  56              	.L1:
  41:Src/usb.c     ****   {
  42:Src/usb.c     ****     Error_Handler();
  43:Src/usb.c     ****   }
  44:Src/usb.c     **** 
  45:Src/usb.c     **** }
  57              		.loc 1 45 0
  58 001e 08BD     		pop	{r3, pc}
  59              	.L4:
  42:Src/usb.c     ****   }
  60              		.loc 1 42 0
  61 0020 FFF7FEFF 		bl	Error_Handler
  62              	.LVL1:
  63              		.loc 1 45 0
  64 0024 FBE7     		b	.L1
  65              	.L6:
  66 0026 00BF     		.align	2
  67              	.L5:
  68 0028 00000000 		.word	hpcd_USB_FS
  69 002c 005C0040 		.word	1073765376
ARM GAS  C:\Users\Patrick\AppData\Local\Temp\ccUxOHii.s 			page 3


  70              		.cfi_endproc
  71              	.LFE66:
  73              		.section	.text.HAL_PCD_MspInit,"ax",%progbits
  74              		.align	1
  75              		.global	HAL_PCD_MspInit
  76              		.syntax unified
  77              		.thumb
  78              		.thumb_func
  79              		.fpu softvfp
  81              	HAL_PCD_MspInit:
  82              	.LFB67:
  46:Src/usb.c     **** 
  47:Src/usb.c     **** void HAL_PCD_MspInit(PCD_HandleTypeDef* pcdHandle)
  48:Src/usb.c     **** {
  83              		.loc 1 48 0
  84              		.cfi_startproc
  85              		@ args = 0, pretend = 0, frame = 8
  86              		@ frame_needed = 0, uses_anonymous_args = 0
  87              	.LVL2:
  49:Src/usb.c     **** 
  50:Src/usb.c     ****   if(pcdHandle->Instance==USB)
  88              		.loc 1 50 0
  89 0000 0268     		ldr	r2, [r0]
  90 0002 124B     		ldr	r3, .L14
  91 0004 9A42     		cmp	r2, r3
  92 0006 00D0     		beq	.L13
  93 0008 7047     		bx	lr
  94              	.L13:
  48:Src/usb.c     **** 
  95              		.loc 1 48 0
  96 000a 00B5     		push	{lr}
  97              	.LCFI1:
  98              		.cfi_def_cfa_offset 4
  99              		.cfi_offset 14, -4
 100 000c 83B0     		sub	sp, sp, #12
 101              	.LCFI2:
 102              		.cfi_def_cfa_offset 16
 103              	.LBB2:
  51:Src/usb.c     ****   {
  52:Src/usb.c     ****   /* USER CODE BEGIN USB_MspInit 0 */
  53:Src/usb.c     **** 
  54:Src/usb.c     ****   /* USER CODE END USB_MspInit 0 */
  55:Src/usb.c     ****     /* USB clock enable */
  56:Src/usb.c     ****     __HAL_RCC_USB_CLK_ENABLE();
 104              		.loc 1 56 0
 105 000e 03F5DA33 		add	r3, r3, #111616
 106 0012 DA69     		ldr	r2, [r3, #28]
 107 0014 42F40002 		orr	r2, r2, #8388608
 108 0018 DA61     		str	r2, [r3, #28]
 109 001a DB69     		ldr	r3, [r3, #28]
 110 001c 03F40003 		and	r3, r3, #8388608
 111 0020 0193     		str	r3, [sp, #4]
 112 0022 019B     		ldr	r3, [sp, #4]
 113              	.LBE2:
  57:Src/usb.c     **** 
  58:Src/usb.c     ****     /* USB interrupt Init */
  59:Src/usb.c     ****     HAL_NVIC_SetPriority(USB_HP_CAN1_TX_IRQn, 0, 0);
ARM GAS  C:\Users\Patrick\AppData\Local\Temp\ccUxOHii.s 			page 4


 114              		.loc 1 59 0
 115 0024 0022     		movs	r2, #0
 116 0026 1146     		mov	r1, r2
 117 0028 1320     		movs	r0, #19
 118              	.LVL3:
 119 002a FFF7FEFF 		bl	HAL_NVIC_SetPriority
 120              	.LVL4:
  60:Src/usb.c     ****     HAL_NVIC_EnableIRQ(USB_HP_CAN1_TX_IRQn);
 121              		.loc 1 60 0
 122 002e 1320     		movs	r0, #19
 123 0030 FFF7FEFF 		bl	HAL_NVIC_EnableIRQ
 124              	.LVL5:
  61:Src/usb.c     ****     HAL_NVIC_SetPriority(USB_LP_CAN1_RX0_IRQn, 0, 0);
 125              		.loc 1 61 0
 126 0034 0022     		movs	r2, #0
 127 0036 1146     		mov	r1, r2
 128 0038 1420     		movs	r0, #20
 129 003a FFF7FEFF 		bl	HAL_NVIC_SetPriority
 130              	.LVL6:
  62:Src/usb.c     ****     HAL_NVIC_EnableIRQ(USB_LP_CAN1_RX0_IRQn);
 131              		.loc 1 62 0
 132 003e 1420     		movs	r0, #20
 133 0040 FFF7FEFF 		bl	HAL_NVIC_EnableIRQ
 134              	.LVL7:
  63:Src/usb.c     ****   /* USER CODE BEGIN USB_MspInit 1 */
  64:Src/usb.c     **** 
  65:Src/usb.c     ****   /* USER CODE END USB_MspInit 1 */
  66:Src/usb.c     ****   }
  67:Src/usb.c     **** }
 135              		.loc 1 67 0
 136 0044 03B0     		add	sp, sp, #12
 137              	.LCFI3:
 138              		.cfi_def_cfa_offset 4
 139              		@ sp needed
 140 0046 5DF804FB 		ldr	pc, [sp], #4
 141              	.L15:
 142 004a 00BF     		.align	2
 143              	.L14:
 144 004c 005C0040 		.word	1073765376
 145              		.cfi_endproc
 146              	.LFE67:
 148              		.section	.text.HAL_PCD_MspDeInit,"ax",%progbits
 149              		.align	1
 150              		.global	HAL_PCD_MspDeInit
 151              		.syntax unified
 152              		.thumb
 153              		.thumb_func
 154              		.fpu softvfp
 156              	HAL_PCD_MspDeInit:
 157              	.LFB68:
  68:Src/usb.c     **** 
  69:Src/usb.c     **** void HAL_PCD_MspDeInit(PCD_HandleTypeDef* pcdHandle)
  70:Src/usb.c     **** {
 158              		.loc 1 70 0
 159              		.cfi_startproc
 160              		@ args = 0, pretend = 0, frame = 0
 161              		@ frame_needed = 0, uses_anonymous_args = 0
ARM GAS  C:\Users\Patrick\AppData\Local\Temp\ccUxOHii.s 			page 5


 162              	.LVL8:
 163 0000 08B5     		push	{r3, lr}
 164              	.LCFI4:
 165              		.cfi_def_cfa_offset 8
 166              		.cfi_offset 3, -8
 167              		.cfi_offset 14, -4
  71:Src/usb.c     **** 
  72:Src/usb.c     ****   if(pcdHandle->Instance==USB)
 168              		.loc 1 72 0
 169 0002 0268     		ldr	r2, [r0]
 170 0004 074B     		ldr	r3, .L20
 171 0006 9A42     		cmp	r2, r3
 172 0008 00D0     		beq	.L19
 173              	.LVL9:
 174              	.L16:
  73:Src/usb.c     ****   {
  74:Src/usb.c     ****   /* USER CODE BEGIN USB_MspDeInit 0 */
  75:Src/usb.c     **** 
  76:Src/usb.c     ****   /* USER CODE END USB_MspDeInit 0 */
  77:Src/usb.c     ****     /* Peripheral clock disable */
  78:Src/usb.c     ****     __HAL_RCC_USB_CLK_DISABLE();
  79:Src/usb.c     **** 
  80:Src/usb.c     ****     /* USB interrupt Deinit */
  81:Src/usb.c     ****     HAL_NVIC_DisableIRQ(USB_HP_CAN1_TX_IRQn);
  82:Src/usb.c     ****     HAL_NVIC_DisableIRQ(USB_LP_CAN1_RX0_IRQn);
  83:Src/usb.c     ****   /* USER CODE BEGIN USB_MspDeInit 1 */
  84:Src/usb.c     **** 
  85:Src/usb.c     ****   /* USER CODE END USB_MspDeInit 1 */
  86:Src/usb.c     ****   }
  87:Src/usb.c     **** } 
 175              		.loc 1 87 0
 176 000a 08BD     		pop	{r3, pc}
 177              	.LVL10:
 178              	.L19:
  78:Src/usb.c     **** 
 179              		.loc 1 78 0
 180 000c 064A     		ldr	r2, .L20+4
 181 000e D369     		ldr	r3, [r2, #28]
 182 0010 23F40003 		bic	r3, r3, #8388608
 183 0014 D361     		str	r3, [r2, #28]
  81:Src/usb.c     ****     HAL_NVIC_DisableIRQ(USB_LP_CAN1_RX0_IRQn);
 184              		.loc 1 81 0
 185 0016 1320     		movs	r0, #19
 186              	.LVL11:
 187 0018 FFF7FEFF 		bl	HAL_NVIC_DisableIRQ
 188              	.LVL12:
  82:Src/usb.c     ****   /* USER CODE BEGIN USB_MspDeInit 1 */
 189              		.loc 1 82 0
 190 001c 1420     		movs	r0, #20
 191 001e FFF7FEFF 		bl	HAL_NVIC_DisableIRQ
 192              	.LVL13:
 193              		.loc 1 87 0
 194 0022 F2E7     		b	.L16
 195              	.L21:
 196              		.align	2
 197              	.L20:
 198 0024 005C0040 		.word	1073765376
ARM GAS  C:\Users\Patrick\AppData\Local\Temp\ccUxOHii.s 			page 6


 199 0028 00100240 		.word	1073876992
 200              		.cfi_endproc
 201              	.LFE68:
 203              		.comm	hpcd_USB_FS,1120,4
 204              		.text
 205              	.Letext0:
 206              		.file 2 "c:\\program files (x86)\\embedded toolchain\\gnu tools arm embedded\\7 2017-q4-major\\arm
 207              		.file 3 "c:\\program files (x86)\\embedded toolchain\\gnu tools arm embedded\\7 2017-q4-major\\arm
 208              		.file 4 "Drivers/CMSIS/Include/core_cm3.h"
 209              		.file 5 "Drivers/CMSIS/Device/ST/STM32F1xx/Include/system_stm32f1xx.h"
 210              		.file 6 "Drivers/CMSIS/Device/ST/STM32F1xx/Include/stm32f103xb.h"
 211              		.file 7 "Drivers/CMSIS/Device/ST/STM32F1xx/Include/stm32f1xx.h"
 212              		.file 8 "c:\\program files (x86)\\embedded toolchain\\gnu tools arm embedded\\7 2017-q4-major\\arm
 213              		.file 9 "c:\\program files (x86)\\embedded toolchain\\gnu tools arm embedded\\7 2017-q4-major\\arm
 214              		.file 10 "c:\\program files (x86)\\embedded toolchain\\gnu tools arm embedded\\7 2017-q4-major\\li
 215              		.file 11 "c:\\program files (x86)\\embedded toolchain\\gnu tools arm embedded\\7 2017-q4-major\\ar
 216              		.file 12 "Drivers/STM32F1xx_HAL_Driver/Inc/stm32f1xx_hal_def.h"
 217              		.file 13 "Drivers/STM32F1xx_HAL_Driver/Inc/stm32f1xx_ll_usb.h"
 218              		.file 14 "Drivers/STM32F1xx_HAL_Driver/Inc/stm32f1xx_hal_pcd.h"
 219              		.file 15 "Drivers/STM32F1xx_HAL_Driver/Inc/stm32f1xx_hal.h"
 220              		.file 16 "Inc/usb.h"
 221              		.file 17 "Drivers/STM32F1xx_HAL_Driver/Inc/stm32f1xx_hal_cortex.h"
 222              		.file 18 "Inc/main.h"
ARM GAS  C:\Users\Patrick\AppData\Local\Temp\ccUxOHii.s 			page 7

